; Function Attrs: mustprogress nounwind uwtable
define hidden void @_ZN4cvc58internal6theory4sets13SetEnumeratorD2Ev(ptr noundef nonnull align 8 captures(none) dereferenceable(80) initializes((0, 8)) %0) unnamed_addr #6 align 2 personality ptr @__gxx_personality_v0 {
  store ptr getelementptr inbounds nuw inrange(-16, 48) (i8, ptr @_ZTVN4cvc58internal6theory4sets13SetEnumeratorE, i64 16), ptr %0, align 8, !tbaa !11
  %2 = getelementptr inbounds nuw i8, ptr %0, i64 72
  %3 = load ptr, ptr %2, align 8, !tbaa !38
  %4 = load i64, ptr %3, align 8
  %5 = and i64 %4, 1152920405095219200
  %.not.i.i = icmp eq i64 %5, 1152920405095219200
  br i1 %.not.i.i, label %_ZN4cvc58internal12NodeTemplateILb1EED2Ev.exit, label %6, !prof !10

6:                                                ; preds = %1
  %7 = add i64 %4, 1152920405095219200
  %8 = and i64 %7, 1152920405095219200
  %9 = and i64 %4, -1152920405095219201
  %10 = or disjoint i64 %8, %9
  store i64 %10, ptr %3, align 8
  %11 = icmp eq i64 %8, 0
  br i1 %11, label %12, label %_ZN4cvc58internal12NodeTemplateILb1EED2Ev.exit, !prof !10

12:                                               ; preds = %6
  invoke void @_ZN4cvc58internal4expr9NodeValue15markForDeletionEv(ptr noundef nonnull align 8 dereferenceable(24) %3)
          to label %_ZN4cvc58internal12NodeTemplateILb1EED2Ev.exit unwind label %13

13:                                               ; preds = %12
  %14 = landingpad { ptr, i32 }
          catch ptr null
  %15 = extractvalue { ptr, i32 } %14, 0
  tail call void @__clang_call_terminate(ptr %15) #23
  unreachable

_ZN4cvc58internal12NodeTemplateILb1EED2Ev.exit:   ; preds = %1, %6, %12
  %16 = getelementptr inbounds nuw i8, ptr %0, i64 40
  %17 = load ptr, ptr %16, align 8, !tbaa !40
  %18 = getelementptr inbounds nuw i8, ptr %0, i64 48
  %19 = load ptr, ptr %18, align 8, !tbaa !41
  %.not4.i.i.i.i = icmp eq ptr %17, %19
  br i1 %.not4.i.i.i.i, label %_ZSt8_DestroyIPN4cvc58internal12NodeTemplateILb1EEES3_EvT_S5_RSaIT0_E.exit.i, label %.lr.ph.i.i.i.i

.lr.ph.i.i.i.i:                                   ; preds = %_ZN4cvc58internal12NodeTemplateILb1EED2Ev.exit, %_ZSt8_DestroyIN4cvc58internal12NodeTemplateILb1EEEEvPT_.exit.i.i.i.i
  %.05.i.i.i.i = phi ptr [ %33, %_ZSt8_DestroyIN4cvc58internal12NodeTemplateILb1EEEEvPT_.exit.i.i.i.i ], [ %17, %_ZN4cvc58internal12NodeTemplateILb1EED2Ev.exit ]
  %20 = load ptr, ptr %.05.i.i.i.i, align 8, !tbaa !38
  %21 = load i64, ptr %20, align 8
  %22 = and i64 %21, 1152920405095219200
  %.not.i.i.i.i.i.i.i = icmp eq i64 %22, 1152920405095219200
  br i1 %.not.i.i.i.i.i.i.i, label %_ZSt8_DestroyIN4cvc58internal12NodeTemplateILb1EEEEvPT_.exit.i.i.i.i, label %23, !prof !10

23:                                               ; preds = %.lr.ph.i.i.i.i
  %24 = add i64 %21, 1152920405095219200
  %25 = and i64 %24, 1152920405095219200
  %26 = and i64 %21, -1152920405095219201
  %27 = or disjoint i64 %25, %26
  store i64 %27, ptr %20, align 8
  %28 = icmp eq i64 %25, 0
  br i1 %28, label %29, label %_ZSt8_DestroyIN4cvc58internal12NodeTemplateILb1EEEEvPT_.exit.i.i.i.i, !prof !10

29:                                               ; preds = %23
  invoke void @_ZN4cvc58internal4expr9NodeValue15markForDeletionEv(ptr noundef nonnull align 8 dereferenceable(24) %20)
          to label %_ZSt8_DestroyIN4cvc58internal12NodeTemplateILb1EEEEvPT_.exit.i.i.i.i unwind label %30

30:                                               ; preds = %29
  %31 = landingpad { ptr, i32 }
          catch ptr null
  %32 = extractvalue { ptr, i32 } %31, 0
  tail call void @__clang_call_terminate(ptr %32) #23
  unreachable

_ZSt8_DestroyIN4cvc58internal12NodeTemplateILb1EEEEvPT_.exit.i.i.i.i: ; preds = %29, %23, %.lr.ph.i.i.i.i
  %33 = getelementptr inbounds nuw i8, ptr %.05.i.i.i.i, i64 8
  %.not.i.i.i.i = icmp eq ptr %33, %19
  br i1 %.not.i.i.i.i, label %_ZSt8_DestroyIPN4cvc58internal12NodeTemplateILb1EEES3_EvT_S5_RSaIT0_E.exitthread-pre-split.i, label %.lr.ph.i.i.i.i, !llvm.loop !42

_ZSt8_DestroyIPN4cvc58internal12NodeTemplateILb1EEES3_EvT_S5_RSaIT0_E.exitthread-pre-split.i: ; preds = %_ZSt8_DestroyIN4cvc58internal12NodeTemplateILb1EEEEvPT_.exit.i.i.i.i
  %.pr.i = load ptr, ptr %16, align 8, !tbaa !40
  br label %_ZSt8_DestroyIPN4cvc58internal12NodeTemplateILb1EEES3_EvT_S5_RSaIT0_E.exit.i

_ZSt8_DestroyIPN4cvc58internal12NodeTemplateILb1EEES3_EvT_S5_RSaIT0_E.exit.i: ; preds = %_ZSt8_DestroyIPN4cvc58internal12NodeTemplateILb1EEES3_EvT_S5_RSaIT0_E.exitthread-pre-split.i, %_ZN4cvc58internal12NodeTemplateILb1EED2Ev.exit
  %34 = phi ptr [ %.pr.i, %_ZSt8_DestroyIPN4cvc58internal12NodeTemplateILb1EEES3_EvT_S5_RSaIT0_E.exitthread-pre-split.i ], [ %17, %_ZN4cvc58internal12NodeTemplateILb1EED2Ev.exit ]
  %.not.i.i.i = icmp eq ptr %34, null
  br i1 %.not.i.i.i, label %_ZNSt6vectorIN4cvc58internal12NodeTemplateILb1EEESaIS3_EED2Ev.exit, label %35

35:                                               ; preds = %_ZSt8_DestroyIPN4cvc58internal12NodeTemplateILb1EEES3_EvT_S5_RSaIT0_E.exit.i
  %36 = getelementptr inbounds nuw i8, ptr %0, i64 56
  %37 = load ptr, ptr %36, align 8, !tbaa !44
  %38 = ptrtoint ptr %37 to i64
  %39 = ptrtoint ptr %34 to i64
  %40 = sub i64 %38, %39
  tail call void @_ZdlPvm(ptr noundef nonnull %34, i64 noundef %40) #26
  br label %_ZNSt6vectorIN4cvc58internal12NodeTemplateILb1EEESaIS3_EED2Ev.exit

_ZNSt6vectorIN4cvc58internal12NodeTemplateILb1EEESaIS3_EED2Ev.exit: ; preds = %_ZSt8_DestroyIPN4cvc58internal12NodeTemplateILb1EEES3_EvT_S5_RSaIT0_E.exit.i, %35
  %41 = getelementptr inbounds nuw i8, ptr %0, i64 24
  %42 = load ptr, ptr %41, align 8, !tbaa !39
  %43 = icmp eq ptr %42, null
  br i1 %43, label %_ZN4cvc58internal6theory14TypeEnumeratorD2Ev.exit, label %44

44:                                               ; preds = %_ZNSt6vectorIN4cvc58internal12NodeTemplateILb1EEESaIS3_EED2Ev.exit
  %45 = load ptr, ptr %42, align 8, !tbaa !11
  %46 = getelementptr inbounds nuw i8, ptr %45, i64 8
  %47 = load ptr, ptr %46, align 8
  tail call void %47(ptr noundef nonnull align 8 dereferenceable(16) %42) #24
  br label %_ZN4cvc58internal6theory14TypeEnumeratorD2Ev.exit

_ZN4cvc58internal6theory14TypeEnumeratorD2Ev.exit: ; preds = %_ZNSt6vectorIN4cvc58internal12NodeTemplateILb1EEESaIS3_EED2Ev.exit, %44
  store ptr getelementptr inbounds nuw inrange(-16, 48) (i8, ptr @_ZTVN4cvc58internal6theory23TypeEnumeratorInterfaceE, i64 16), ptr %0, align 8, !tbaa !11
  %48 = getelementptr inbounds nuw i8, ptr %0, i64 8
  %49 = load ptr, ptr %48, align 8, !tbaa !3
  %50 = load i64, ptr %49, align 8
  %51 = and i64 %50, 1152920405095219200
  %.not.i.i.i1 = icmp eq i64 %51, 1152920405095219200
  br i1 %.not.i.i.i1, label %_ZN4cvc58internal6theory23TypeEnumeratorInterfaceD2Ev.exit, label %52, !prof !10

52:                                               ; preds = %_ZN4cvc58internal6theory14TypeEnumeratorD2Ev.exit
  %53 = add i64 %50, 1152920405095219200
  %54 = and i64 %53, 1152920405095219200
  %55 = and i64 %50, -1152920405095219201
  %56 = or disjoint i64 %54, %55
  store i64 %56, ptr %49, align 8
  %57 = icmp eq i64 %54, 0
  br i1 %57, label %58, label %_ZN4cvc58internal6theory23TypeEnumeratorInterfaceD2Ev.exit, !prof !10

58:                                               ; preds = %52
  invoke void @_ZN4cvc58internal4expr9NodeValue15markForDeletionEv(ptr noundef nonnull align 8 dereferenceable(24) %49)
          to label %_ZN4cvc58internal6theory23TypeEnumeratorInterfaceD2Ev.exit unwind label %59

59:                                               ; preds = %58
  %60 = landingpad { ptr, i32 }
          catch ptr null
  %61 = extractvalue { ptr, i32 } %60, 0
  tail call void @__clang_call_terminate(ptr %61) #23
  unreachable

_ZN4cvc58internal6theory23TypeEnumeratorInterfaceD2Ev.exit: ; preds = %_ZN4cvc58internal6theory14TypeEnumeratorD2Ev.exit, %52, %58
  ret void
}